target datalayout = "e-m:e-p270:32:32-p271:32:32-p272:64:64-i64:64-i128:128-f80:128-n8:16:32:64-S128"
target triple = "x86_64-pc-linux-gnu"

%struct._Node = type { %union.anon.35 }
%union.anon.35 = type { %struct.BagNode }
%struct.BagNode = type { i32, i32, ptr, ptr, i32, %union.anon.37, i32, i32, i32, i32, i32 }
%union.anon.37 = type { %struct.anon.40 }
%struct.anon.40 = type { ptr, ptr }
%struct.anon.36 = type { i32, i32, ptr, ptr }
%struct.ConsAltNode = type { i32, i32, ptr, ptr, ptr }
%struct.AnchorNode = type { i32, i32, ptr, ptr, i32, i32, i32, i32, ptr }

; Function Attrs: nounwind uwtable
define internal i32 @infinite_recursive_call_check_trav(ptr noundef %0, ptr noundef %1) #0 {
  %3 = alloca i32, align 4
  %4 = alloca ptr, align 8
  %5 = alloca ptr, align 8
  %6 = alloca i32, align 4
  %7 = alloca ptr, align 8
  %8 = alloca i32, align 4
  %9 = alloca i32, align 4
  store ptr %0, ptr %4, align 8, !tbaa !47
  store ptr %1, ptr %5, align 8, !tbaa !15
  call void @llvm.lifetime.start.p0(i64 4, ptr %6) #9
  %10 = load ptr, ptr %4, align 8, !tbaa !47
  %11 = getelementptr inbounds nuw %struct._Node, ptr %10, i32 0, i32 0
  %12 = getelementptr inbounds nuw %struct.anon.36, ptr %11, i32 0, i32 0
  %13 = load i32, ptr %12, align 8, !tbaa !32
  switch i32 %13, label %155 [
    i32 7, label %14
    i32 8, label %14
    i32 6, label %34
    i32 4, label %42
    i32 5, label %49
  ]

14:                                               ; preds = %2, %2
  br label %15

15:                                               ; preds = %31, %14
  %16 = load ptr, ptr %4, align 8, !tbaa !47
  %17 = getelementptr inbounds nuw %struct._Node, ptr %16, i32 0, i32 0
  %18 = getelementptr inbounds nuw %struct.ConsAltNode, ptr %17, i32 0, i32 3
  %19 = load ptr, ptr %18, align 8, !tbaa !32
  %20 = load ptr, ptr %5, align 8, !tbaa !15
  %21 = call i32 @infinite_recursive_call_check_trav(ptr noundef %19, ptr noundef %20)
  store i32 %21, ptr %6, align 4, !tbaa !4
  br label %22

22:                                               ; preds = %15
  %23 = load i32, ptr %6, align 4, !tbaa !4
  %24 = icmp eq i32 %23, 0
  br i1 %24, label %25, label %31

25:                                               ; preds = %22
  %26 = load ptr, ptr %4, align 8, !tbaa !47
  %27 = getelementptr inbounds nuw %struct._Node, ptr %26, i32 0, i32 0
  %28 = getelementptr inbounds nuw %struct.ConsAltNode, ptr %27, i32 0, i32 4
  %29 = load ptr, ptr %28, align 8, !tbaa !32
  store ptr %29, ptr %4, align 8, !tbaa !47
  %30 = icmp ne ptr %29, null
  br label %31

31:                                               ; preds = %25, %22
  %32 = phi i1 [ false, %22 ], [ %30, %25 ]
  br i1 %32, label %15, label %33, !llvm.loop !187

33:                                               ; preds = %31
  br label %156

34:                                               ; preds = %2
  %35 = load ptr, ptr %4, align 8, !tbaa !47
  %36 = getelementptr inbounds nuw %struct._Node, ptr %35, i32 0, i32 0
  %37 = getelementptr inbounds nuw %struct.AnchorNode, ptr %36, i32 0, i32 4
  %38 = load i32, ptr %37, align 8, !tbaa !32
  %39 = icmp slt i32 %38, 16
  br i1 %39, label %41, label %40

40:                                               ; preds = %34
  store i32 0, ptr %6, align 4, !tbaa !4
  br label %156

41:                                               ; preds = %34
  br label %42

42:                                               ; preds = %2, %41
  %43 = load ptr, ptr %4, align 8, !tbaa !47
  %44 = getelementptr inbounds nuw %struct._Node, ptr %43, i32 0, i32 0
  %45 = getelementptr inbounds nuw %struct.anon.36, ptr %44, i32 0, i32 3
  %46 = load ptr, ptr %45, align 8, !tbaa !32
  %47 = load ptr, ptr %5, align 8, !tbaa !15
  %48 = call i32 @infinite_recursive_call_check_trav(ptr noundef %46, ptr noundef %47)
  store i32 %48, ptr %6, align 4, !tbaa !4
  br label %156

49:                                               ; preds = %2
  call void @llvm.lifetime.start.p0(i64 8, ptr %7) #9
  %50 = load ptr, ptr %4, align 8, !tbaa !47
  %51 = getelementptr inbounds nuw %struct._Node, ptr %50, i32 0, i32 0
  store ptr %51, ptr %7, align 8, !tbaa !15
  %52 = load ptr, ptr %7, align 8, !tbaa !15
  %53 = getelementptr inbounds nuw %struct.BagNode, ptr %52, i32 0, i32 4
  %54 = load i32, ptr %53, align 8, !tbaa !156
  %55 = icmp eq i32 %54, 0
  br i1 %55, label %56, label %102

56:                                               ; preds = %49
  %57 = load ptr, ptr %4, align 8, !tbaa !47
  %58 = getelementptr inbounds nuw %struct._Node, ptr %57, i32 0, i32 0
  %59 = getelementptr inbounds nuw %struct.anon.36, ptr %58, i32 0, i32 1
  %60 = load i32, ptr %59, align 4, !tbaa !32
  %61 = and i32 %60, 64
  %62 = icmp ne i32 %61, 0
  br i1 %62, label %63, label %101

63:                                               ; preds = %56
  %64 = load ptr, ptr %4, align 8, !tbaa !47
  %65 = getelementptr inbounds nuw %struct._Node, ptr %64, i32 0, i32 0
  %66 = getelementptr inbounds nuw %struct.anon.36, ptr %65, i32 0, i32 1
  %67 = load i32, ptr %66, align 4, !tbaa !32
  %68 = and i32 %67, 128
  %69 = icmp ne i32 %68, 0
  br i1 %69, label %70, label %101

70:                                               ; preds = %63
  call void @llvm.lifetime.start.p0(i64 4, ptr %8) #9
  %71 = load ptr, ptr %4, align 8, !tbaa !47
  %72 = getelementptr inbounds nuw %struct._Node, ptr %71, i32 0, i32 0
  %73 = getelementptr inbounds nuw %struct.anon.36, ptr %72, i32 0, i32 1
  %74 = load i32, ptr %73, align 4, !tbaa !32
  %75 = or i32 %74, 8
  store i32 %75, ptr %73, align 4, !tbaa !32
  %76 = load ptr, ptr %4, align 8, !tbaa !47
  %77 = getelementptr inbounds nuw %struct._Node, ptr %76, i32 0, i32 0
  %78 = getelementptr inbounds nuw %struct.anon.36, ptr %77, i32 0, i32 3
  %79 = load ptr, ptr %78, align 8, !tbaa !32
  %80 = load ptr, ptr %5, align 8, !tbaa !15
  %81 = call i32 @infinite_recursive_call_check(ptr noundef %79, ptr noundef %80, i32 noundef 1)
  store i32 %81, ptr %8, align 4, !tbaa !4
  %82 = load i32, ptr %8, align 4, !tbaa !4
  %83 = icmp slt i32 %82, 0
  br i1 %83, label %84, label %86

84:                                               ; preds = %70
  %85 = load i32, ptr %8, align 4, !tbaa !4
  store i32 %85, ptr %3, align 4
  store i32 1, ptr %9, align 4
  br label %98

86:                                               ; preds = %70
  %87 = load i32, ptr %8, align 4, !tbaa !4
  %88 = and i32 %87, 6
  %89 = icmp ne i32 %88, 0
  br i1 %89, label %90, label %91

90:                                               ; preds = %86
  store i32 -221, ptr %3, align 4
  store i32 1, ptr %9, align 4
  br label %98

91:                                               ; preds = %86
  br label %92

92:                                               ; preds = %91
  %93 = load ptr, ptr %4, align 8, !tbaa !47
  %94 = getelementptr inbounds nuw %struct._Node, ptr %93, i32 0, i32 0
  %95 = getelementptr inbounds nuw %struct.anon.36, ptr %94, i32 0, i32 1
  %96 = load i32, ptr %95, align 4, !tbaa !32
  %97 = and i32 %96, -9
  store i32 %97, ptr %95, align 4, !tbaa !32
  store i32 0, ptr %9, align 4
  br label %98

98:                                               ; preds = %92, %90, %84
  call void @llvm.lifetime.end.p0(i64 4, ptr %8) #9
  %99 = load i32, ptr %9, align 4
  switch i32 %99, label %146 [
    i32 0, label %100
  ]

100:                                              ; preds = %98
  br label %101

101:                                              ; preds = %100, %63, %56
  br label %145

102:                                              ; preds = %49
  %103 = load ptr, ptr %7, align 8, !tbaa !15
  %104 = getelementptr inbounds nuw %struct.BagNode, ptr %103, i32 0, i32 4
  %105 = load i32, ptr %104, align 8, !tbaa !156
  %106 = icmp eq i32 %105, 3
  br i1 %106, label %107, label %144

107:                                              ; preds = %102
  %108 = load ptr, ptr %7, align 8, !tbaa !15
  %109 = getelementptr inbounds nuw %struct.BagNode, ptr %108, i32 0, i32 5
  %110 = getelementptr inbounds nuw %struct.anon.40, ptr %109, i32 0, i32 0
  %111 = load ptr, ptr %110, align 8, !tbaa !32
  %112 = icmp ne ptr %111, null
  br i1 %112, label %113, label %125

113:                                              ; preds = %107
  %114 = load ptr, ptr %7, align 8, !tbaa !15
  %115 = getelementptr inbounds nuw %struct.BagNode, ptr %114, i32 0, i32 5
  %116 = getelementptr inbounds nuw %struct.anon.40, ptr %115, i32 0, i32 0
  %117 = load ptr, ptr %116, align 8, !tbaa !32
  %118 = load ptr, ptr %5, align 8, !tbaa !15
  %119 = call i32 @infinite_recursive_call_check_trav(ptr noundef %117, ptr noundef %118)
  store i32 %119, ptr %6, align 4, !tbaa !4
  %120 = load i32, ptr %6, align 4, !tbaa !4
  %121 = icmp ne i32 %120, 0
  br i1 %121, label %122, label %124

122:                                              ; preds = %113
  %123 = load i32, ptr %6, align 4, !tbaa !4
  store i32 %123, ptr %3, align 4
  store i32 1, ptr %9, align 4
  br label %146

124:                                              ; preds = %113
  br label %125

125:                                              ; preds = %124, %107
  %126 = load ptr, ptr %7, align 8, !tbaa !15
  %127 = getelementptr inbounds nuw %struct.BagNode, ptr %126, i32 0, i32 5
  %128 = getelementptr inbounds nuw %struct.anon.40, ptr %127, i32 0, i32 1
  %129 = load ptr, ptr %128, align 8, !tbaa !32
  %130 = icmp ne ptr %129, null
  br i1 %130, label %131, label %143

131:                                              ; preds = %125
  %132 = load ptr, ptr %7, align 8, !tbaa !15
  %133 = getelementptr inbounds nuw %struct.BagNode, ptr %132, i32 0, i32 5
  %134 = getelementptr inbounds nuw %struct.anon.40, ptr %133, i32 0, i32 1
  %135 = load ptr, ptr %134, align 8, !tbaa !32
  %136 = load ptr, ptr %5, align 8, !tbaa !15
  %137 = call i32 @infinite_recursive_call_check_trav(ptr noundef %135, ptr noundef %136)
  store i32 %137, ptr %6, align 4, !tbaa !4
  %138 = load i32, ptr %6, align 4, !tbaa !4
  %139 = icmp ne i32 %138, 0
  br i1 %139, label %140, label %142

140:                                              ; preds = %131
  %141 = load i32, ptr %6, align 4, !tbaa !4
  store i32 %141, ptr %3, align 4
  store i32 1, ptr %9, align 4
  br label %146

142:                                              ; preds = %131
  br label %143

143:                                              ; preds = %142, %125
  br label %144

144:                                              ; preds = %143, %102
  br label %145

145:                                              ; preds = %144, %101
  store i32 0, ptr %9, align 4
  br label %146

146:                                              ; preds = %145, %140, %122, %98
  call void @llvm.lifetime.end.p0(i64 8, ptr %7) #9
  %147 = load i32, ptr %9, align 4
  switch i32 %147, label %158 [
    i32 0, label %148
  ]

148:                                              ; preds = %146
  %149 = load ptr, ptr %4, align 8, !tbaa !47
  %150 = getelementptr inbounds nuw %struct._Node, ptr %149, i32 0, i32 0
  %151 = getelementptr inbounds nuw %struct.anon.36, ptr %150, i32 0, i32 3
  %152 = load ptr, ptr %151, align 8, !tbaa !32
  %153 = load ptr, ptr %5, align 8, !tbaa !15
  %154 = call i32 @infinite_recursive_call_check_trav(ptr noundef %152, ptr noundef %153)
  store i32 %154, ptr %6, align 4, !tbaa !4
  br label %156

155:                                              ; preds = %2
  store i32 0, ptr %6, align 4, !tbaa !4
  br label %156

156:                                              ; preds = %155, %148, %42, %40, %33
  %157 = load i32, ptr %6, align 4, !tbaa !4
  store i32 %157, ptr %3, align 4
  store i32 1, ptr %9, align 4
  br label %158

158:                                              ; preds = %156, %146
  call void @llvm.lifetime.end.p0(i64 4, ptr %6) #9
  %159 = load i32, ptr %3, align 4
  ret i32 %159
}